target datalayout = "e-m:e-p270:32:32-p271:32:32-p272:64:64-i64:64-i128:128-f80:128-n8:16:32:64-S128"
target triple = "x86_64-pc-linux-gnu"

%struct.StatusPrinter = type { %struct.Status, ptr, i32, i32, i32, i32, i64, %struct.LinePrinter, ptr, %"struct.StatusPrinter::SlidingRateInfo" }
%struct.Status = type { ptr }
%struct.LinePrinter = type { i8, i8, i8, i8, %"class.std::__cxx11::basic_string", i32, %"class.std::__cxx11::basic_string" }
%"class.std::__cxx11::basic_string" = type { %"struct.std::__cxx11::basic_string<char>::_Alloc_hider", i64, %union.anon }
%"struct.std::__cxx11::basic_string<char>::_Alloc_hider" = type { ptr }
%union.anon = type { i64, [8 x i8] }
%"struct.StatusPrinter::SlidingRateInfo" = type <{ double, i64, %"class.std::queue", i32, [4 x i8] }>
%"class.std::queue" = type { %"class.std::deque" }
%"class.std::deque" = type { %"class.std::_Deque_base" }
%"class.std::_Deque_base" = type { %"struct.std::_Deque_base<double, std::allocator<double>>::_Deque_impl" }
%"struct.std::_Deque_base<double, std::allocator<double>>::_Deque_impl" = type { %"struct.std::_Deque_base<double, std::allocator<double>>::_Deque_impl_data" }
%"struct.std::_Deque_base<double, std::allocator<double>>::_Deque_impl_data" = type { ptr, i64, %"struct.std::_Deque_iterator", %"struct.std::_Deque_iterator" }
%"struct.std::_Deque_iterator" = type { ptr, ptr, ptr, ptr }

; Function Attrs: mustprogress nounwind uwtable
define dso_local void @_ZN13StatusPrinter12BuildStartedEv(ptr noundef nonnull align 8 dereferenceable(232) %0) unnamed_addr #1 align 2 {
  %2 = alloca ptr, align 8
  store ptr %0, ptr %2, align 8
  %3 = load ptr, ptr %2, align 8
  %4 = getelementptr inbounds %struct.StatusPrinter, ptr %3, i32 0, i32 2
  store i32 0, ptr %4, align 8
  %5 = getelementptr inbounds %struct.StatusPrinter, ptr %3, i32 0, i32 3
  store i32 0, ptr %5, align 4
  %6 = getelementptr inbounds %struct.StatusPrinter, ptr %3, i32 0, i32 5
  store i32 0, ptr %6, align 4
  ret void
}