; Function Attrs: mustprogress nofree norecurse nosync nounwind willreturn memory(argmem: write) uwtable
define dso_local void @_ZN13StatusPrinter12BuildStartedEv(ptr nocapture noundef nonnull writeonly align 8 dereferenceable(232) %0) unnamed_addr #3 align 2 {
  %2 = getelementptr inbounds i8, ptr %0, i64 16
  store i32 0, ptr %2, align 8
  %3 = getelementptr inbounds i8, ptr %0, i64 20
  store i32 0, ptr %3, align 4
  %4 = getelementptr inbounds i8, ptr %0, i64 28
  store i32 0, ptr %4, align 4
  ret void
}